target datalayout = "e-m:e-p270:32:32-p271:32:32-p272:64:64-i64:64-i128:128-f80:128-n8:16:32:64-S128"
target triple = "x86_64-pc-linux-gnu"

%class.QuickOpen = type <{ ptr, i8, [7 x i8], ptr, ptr, ptr, i64, %class.CryptData, i8, [7 x i8], i64, i64, i64, i64, i64, i64, %class.Array, i64, i64, i8, [7 x i8] }>
%class.CryptData = type { [4 x %"struct.CryptData::KDF3CacheItem"], i32, [4 x i8], [4 x %"struct.CryptData::KDF5CacheItem"], i32, i32, %class.Rijndael, [256 x i32], [256 x i8], [4 x i32], [3 x i8], [4 x i16], [4 x i8] }
%"struct.CryptData::KDF3CacheItem" = type { %class.SecPassword, [8 x i8], [16 x i8], [16 x i8], i8, [7 x i8] }
%class.SecPassword = type <{ %"class.std::vector", i8, [7 x i8] }>
%"class.std::vector" = type { %"struct.std::_Vector_base" }
%"struct.std::_Vector_base" = type { %"struct.std::_Vector_base<wchar_t, std::allocator<wchar_t>>::_Vector_impl" }
%"struct.std::_Vector_base<wchar_t, std::allocator<wchar_t>>::_Vector_impl" = type { %"struct.std::_Vector_base<wchar_t, std::allocator<wchar_t>>::_Vector_impl_data" }
%"struct.std::_Vector_base<wchar_t, std::allocator<wchar_t>>::_Vector_impl_data" = type { ptr, ptr, ptr }
%"struct.CryptData::KDF5CacheItem" = type { %class.SecPassword, [16 x i8], [32 x i8], i32, [32 x i8], [32 x i8], [4 x i8] }
%class.Rijndael = type { i8, i32, [16 x i8], [15 x [4 x [4 x i8]]] }
%class.Array = type { ptr, i64, i64, i64 }

; Function Attrs: mustprogress uwtable
define noundef zeroext i1 @_ZN9QuickOpen4SeekEli(ptr noundef nonnull align 8 dereferenceable(2673) %0, i64 noundef %1, i32 noundef %2) #0 align 2 {
  %4 = alloca i1, align 1
  %5 = alloca ptr, align 8
  %6 = alloca i64, align 8
  %7 = alloca i32, align 4
  store ptr %0, ptr %5, align 8
  store i64 %1, ptr %6, align 8
  store i32 %2, ptr %7, align 4
  %8 = load ptr, ptr %5, align 8
  %9 = getelementptr inbounds %class.QuickOpen, ptr %8, i32 0, i32 8
  %10 = load i8, ptr %9, align 8
  %11 = trunc i8 %10 to i1
  br i1 %11, label %13, label %12

12:                                               ; preds = %3
  store i1 false, ptr %4, align 1
  br label %57

13:                                               ; preds = %3
  %14 = load i32, ptr %7, align 4
  %15 = icmp eq i32 %14, 0
  br i1 %15, label %16, label %29

16:                                               ; preds = %13
  %17 = load i64, ptr %6, align 8
  %18 = getelementptr inbounds %class.QuickOpen, ptr %8, i32 0, i32 18
  %19 = load i64, ptr %18, align 8
  %20 = icmp ult i64 %17, %19
  br i1 %20, label %21, label %29

21:                                               ; preds = %16
  %22 = load i64, ptr %6, align 8
  %23 = getelementptr inbounds %class.QuickOpen, ptr %8, i32 0, i32 17
  %24 = load i64, ptr %23, align 8
  %25 = icmp ult i64 %22, %24
  br i1 %25, label %26, label %29

26:                                               ; preds = %21
  %27 = getelementptr inbounds %class.QuickOpen, ptr %8, i32 0, i32 10
  %28 = load i64, ptr %27, align 8
  call void @_ZN9QuickOpen4LoadEm(ptr noundef nonnull align 8 dereferenceable(2673) %8, i64 noundef %28)
  br label %29

29:                                               ; preds = %26, %21, %16, %13
  %30 = load i32, ptr %7, align 4
  %31 = icmp eq i32 %30, 0
  br i1 %31, label %32, label %35

32:                                               ; preds = %29
  %33 = load i64, ptr %6, align 8
  %34 = getelementptr inbounds %class.QuickOpen, ptr %8, i32 0, i32 18
  store i64 %33, ptr %34, align 8
  br label %35

35:                                               ; preds = %32, %29
  %36 = load i32, ptr %7, align 4
  %37 = icmp eq i32 %36, 1
  br i1 %37, label %38, label %43

38:                                               ; preds = %35
  %39 = load i64, ptr %6, align 8
  %40 = getelementptr inbounds %class.QuickOpen, ptr %8, i32 0, i32 18
  %41 = load i64, ptr %40, align 8
  %42 = add i64 %41, %39
  store i64 %42, ptr %40, align 8
  br label %43

43:                                               ; preds = %38, %35
  %44 = getelementptr inbounds %class.QuickOpen, ptr %8, i32 0, i32 19
  store i8 1, ptr %44, align 8
  %45 = load i32, ptr %7, align 4
  %46 = icmp eq i32 %45, 2
  br i1 %46, label %47, label %56

47:                                               ; preds = %43
  %48 = getelementptr inbounds %class.QuickOpen, ptr %8, i32 0, i32 0
  %49 = load ptr, ptr %48, align 8
  %50 = load i64, ptr %6, align 8
  call void @_ZN4File4SeekEli(ptr noundef nonnull align 8 dereferenceable(8256) %49, i64 noundef %50, i32 noundef 2)
  %51 = getelementptr inbounds %class.QuickOpen, ptr %8, i32 0, i32 0
  %52 = load ptr, ptr %51, align 8
  %53 = call noundef i64 @_ZN4File4TellEv(ptr noundef nonnull align 8 dereferenceable(8256) %52)
  %54 = getelementptr inbounds %class.QuickOpen, ptr %8, i32 0, i32 18
  store i64 %53, ptr %54, align 8
  %55 = getelementptr inbounds %class.QuickOpen, ptr %8, i32 0, i32 19
  store i8 0, ptr %55, align 8
  br label %56

56:                                               ; preds = %47, %43
  store i1 true, ptr %4, align 1
  br label %57

57:                                               ; preds = %56, %12
  %58 = load i1, ptr %4, align 1
  ret i1 %58
}