; Function Attrs: mustprogress uwtable
define noundef zeroext i1 @_ZN9QuickOpen4SeekEli(ptr noundef nonnull align 8 dereferenceable(2673) %0, i64 noundef %1, i32 noundef %2) local_unnamed_addr #0 align 2 {
  %4 = getelementptr inbounds i8, ptr %0, i64 2568
  %5 = load i8, ptr %4, align 8
  %6 = trunc i8 %5 to i1
  br i1 %6, label %7, label %30

7:                                                ; preds = %3
  %8 = icmp eq i32 %2, 0
  %9 = getelementptr inbounds i8, ptr %0, i64 2664
  %10 = load i64, ptr %9, align 8
  %11 = icmp ugt i64 %10, %1
  %or.cond = select i1 %8, i1 %11, i1 false
  %12 = getelementptr inbounds i8, ptr %0, i64 2656
  %13 = load i64, ptr %12, align 8
  %14 = icmp ugt i64 %13, %1
  %or.cond15 = select i1 %or.cond, i1 %14, i1 false
  br i1 %or.cond15, label %.thread, label %17

.thread:                                          ; preds = %7
  %15 = getelementptr inbounds i8, ptr %0, i64 2576
  %16 = load i64, ptr %15, align 8
  tail call void @_ZN9QuickOpen4LoadEm(ptr noundef nonnull align 8 dereferenceable(2673) %0, i64 noundef %16)
  br label %.thread17

17:                                               ; preds = %7
  br i1 %8, label %.thread17, label %18

18:                                               ; preds = %17
  %19 = icmp eq i32 %2, 1
  br i1 %19, label %20, label %23

20:                                               ; preds = %18
  %21 = add i64 %10, %1
  br label %.thread17

.thread17:                                        ; preds = %.thread, %17, %20
  %storemerge = phi i64 [ %21, %20 ], [ %1, %17 ], [ %1, %.thread ]
  store i64 %storemerge, ptr %9, align 8
  %22 = getelementptr inbounds i8, ptr %0, i64 2672
  store i8 1, ptr %22, align 8
  br label %30

23:                                               ; preds = %18
  %24 = getelementptr inbounds i8, ptr %0, i64 2672
  store i8 1, ptr %24, align 8
  %25 = icmp eq i32 %2, 2
  br i1 %25, label %26, label %30

26:                                               ; preds = %23
  %27 = load ptr, ptr %0, align 8
  tail call void @_ZN4File4SeekEli(ptr noundef nonnull align 8 dereferenceable(8256) %27, i64 noundef %1, i32 noundef 2)
  %28 = load ptr, ptr %0, align 8
  %29 = tail call noundef i64 @_ZN4File4TellEv(ptr noundef nonnull align 8 dereferenceable(8256) %28)
  store i64 %29, ptr %9, align 8
  store i8 0, ptr %24, align 8
  br label %30

30:                                               ; preds = %.thread17, %23, %26, %3
  ret i1 %6
}